; Function Attrs: mustprogress uwtable
define noundef ptr @_ZN18OpenImageIO_v2_6_024iff_input_imageio_createEv() local_unnamed_addr #6 personality ptr @__gxx_personality_v0 {
entry:
  %call = tail call noundef ptr @_ZN18OpenImageIO_v2_6_010ImageInputnwEm(i64 noundef 352)
  invoke void @_ZN18OpenImageIO_v2_6_08IffInputC2Ev(ptr noundef nonnull align 8 dereferenceable(352) %call)
          to label %invoke.cont unwind label %lpad

invoke.cont:                                      ; preds = %entry
  ret ptr %call

lpad:                                             ; preds = %entry
  %0 = landingpad { ptr, i32 }
          cleanup
  tail call void @_ZN18OpenImageIO_v2_6_010ImageInputdlEPv(ptr noundef %call) #22
  resume { ptr, i32 } %0
}